; Function Attrs: mustprogress uwtable
define dso_local noundef ptr @_ZN30btReducedDeformableBodyHelpers29createReducedDeformableObjectER19btSoftBodyWorldInfoRKNSt7__cxx1112basic_stringIcSt11char_traitsIcESaIcEEES9_ib(ptr noundef nonnull align 8 dereferenceable(128) %0, ptr noundef nonnull align 8 dereferenceable(32) %1, ptr noundef nonnull align 8 dereferenceable(32) %2, i32 noundef %3, i1 noundef zeroext %4) local_unnamed_addr #3 align 2 personality ptr @__gxx_personality_v0 {
  %6 = alloca %"class.std::__cxx11::basic_string", align 8
  call void @llvm.lifetime.start.p0(i64 32, ptr nonnull %6) #21
  call void @_ZStplIcSt11char_traitsIcESaIcEENSt7__cxx1112basic_stringIT_T0_T1_EERKS8_SA_(ptr dead_on_unwind nonnull writable sret(%"class.std::__cxx11::basic_string") align 8 %6, ptr noundef nonnull align 8 dereferenceable(32) %1, ptr noundef nonnull align 8 dereferenceable(32) %2)
  %7 = load ptr, ptr %6, align 8, !tbaa !4
  %8 = invoke noundef ptr @_ZN30btReducedDeformableBodyHelpers17createFromVtkFileER19btSoftBodyWorldInfoPKc(ptr noundef nonnull align 8 dereferenceable(128) %0, ptr noundef %7)
          to label %9 unwind label %24

9:                                                ; preds = %5
  %10 = getelementptr inbounds nuw i8, ptr %8, i64 932
  %11 = load i32, ptr %10, align 4, !tbaa !12
  invoke void @_ZN23btReducedDeformableBody15setReducedModesEii(ptr noundef nonnull align 8 dereferenceable(3176) %8, i32 noundef %3, i32 noundef %11)
          to label %12 unwind label %24

12:                                               ; preds = %9
  %13 = load ptr, ptr %1, align 8, !tbaa !4
  invoke void @_ZN30btReducedDeformableBodyHelpers34readReducedDeformableInfoFromFilesEP23btReducedDeformableBodyPKc(ptr noundef nonnull %8, ptr noundef %13)
          to label %14 unwind label %24

14:                                               ; preds = %12
  invoke void @_ZN23btReducedDeformableBody19disableReducedModesEb(ptr noundef nonnull align 8 dereferenceable(3176) %8, i1 noundef zeroext %4)
          to label %15 unwind label %24

15:                                               ; preds = %14
  %16 = load ptr, ptr %6, align 8, !tbaa !4
  %17 = getelementptr inbounds nuw i8, ptr %6, i64 16
  %18 = icmp eq ptr %16, %17
  br i1 %18, label %_ZNKSt7__cxx1112basic_stringIcSt11char_traitsIcESaIcEE11_M_is_localEv.exit.thread.i.i, label %_ZNKSt7__cxx1112basic_stringIcSt11char_traitsIcESaIcEE11_M_is_localEv.exit.i.i

_ZNKSt7__cxx1112basic_stringIcSt11char_traitsIcESaIcEE11_M_is_localEv.exit.thread.i.i: ; preds = %15
  %19 = getelementptr inbounds nuw i8, ptr %6, i64 8
  %20 = load i64, ptr %19, align 8, !tbaa !18
  %21 = icmp ult i64 %20, 16
  call void @llvm.assume(i1 %21)
  br label %_ZNSt7__cxx1112basic_stringIcSt11char_traitsIcESaIcEED2Ev.exit

_ZNKSt7__cxx1112basic_stringIcSt11char_traitsIcESaIcEE11_M_is_localEv.exit.i.i: ; preds = %15
  %22 = load i64, ptr %17, align 8, !tbaa !19
  %23 = add i64 %22, 1
  call void @_ZdlPvm(ptr noundef %16, i64 noundef %23) #22
  br label %_ZNSt7__cxx1112basic_stringIcSt11char_traitsIcESaIcEED2Ev.exit

_ZNSt7__cxx1112basic_stringIcSt11char_traitsIcESaIcEED2Ev.exit: ; preds = %_ZNKSt7__cxx1112basic_stringIcSt11char_traitsIcESaIcEE11_M_is_localEv.exit.thread.i.i, %_ZNKSt7__cxx1112basic_stringIcSt11char_traitsIcESaIcEE11_M_is_localEv.exit.i.i
  call void @llvm.lifetime.end.p0(i64 32, ptr nonnull %6) #21
  ret ptr %8

24:                                               ; preds = %14, %12, %9, %5
  %25 = landingpad { ptr, i32 }
          cleanup
  %26 = load ptr, ptr %6, align 8, !tbaa !4
  %27 = getelementptr inbounds nuw i8, ptr %6, i64 16
  %28 = icmp eq ptr %26, %27
  br i1 %28, label %_ZNKSt7__cxx1112basic_stringIcSt11char_traitsIcESaIcEE11_M_is_localEv.exit.thread.i.i13, label %_ZNKSt7__cxx1112basic_stringIcSt11char_traitsIcESaIcEE11_M_is_localEv.exit.i.i12

_ZNKSt7__cxx1112basic_stringIcSt11char_traitsIcESaIcEE11_M_is_localEv.exit.thread.i.i13: ; preds = %24
  %29 = getelementptr inbounds nuw i8, ptr %6, i64 8
  %30 = load i64, ptr %29, align 8, !tbaa !18
  %31 = icmp ult i64 %30, 16
  call void @llvm.assume(i1 %31)
  br label %_ZNSt7__cxx1112basic_stringIcSt11char_traitsIcESaIcEED2Ev.exit14

_ZNKSt7__cxx1112basic_stringIcSt11char_traitsIcESaIcEE11_M_is_localEv.exit.i.i12: ; preds = %24
  %32 = load i64, ptr %27, align 8, !tbaa !19
  %33 = add i64 %32, 1
  call void @_ZdlPvm(ptr noundef %26, i64 noundef %33) #22
  br label %_ZNSt7__cxx1112basic_stringIcSt11char_traitsIcESaIcEED2Ev.exit14

_ZNSt7__cxx1112basic_stringIcSt11char_traitsIcESaIcEED2Ev.exit14: ; preds = %_ZNKSt7__cxx1112basic_stringIcSt11char_traitsIcESaIcEE11_M_is_localEv.exit.thread.i.i13, %_ZNKSt7__cxx1112basic_stringIcSt11char_traitsIcESaIcEE11_M_is_localEv.exit.i.i12
  call void @llvm.lifetime.end.p0(i64 32, ptr nonnull %6) #21
  resume { ptr, i32 } %25
}